target datalayout = "e-m:e-p270:32:32-p271:32:32-p272:64:64-i64:64-i128:128-f80:128-n8:16:32:64-S128"
target triple = "x86_64-pc-linux-gnu"

%"class.icu_77::SpoofData" = type { ptr, i8, ptr, i32, %"struct.std::atomic", ptr, ptr, ptr }
%"struct.std::atomic" = type { %"struct.std::__atomic_base" }
%"struct.std::__atomic_base" = type { i32 }

@_ZN6icu_779SpoofDataD1Ev = unnamed_addr alias void (ptr), ptr @_ZN6icu_779SpoofDataD2Ev

; Function Attrs: alwaysinline mustprogress nounwind uwtable
define linkonce_odr noundef i32 @_ZNSt13__atomic_baseIiE9fetch_subEiSt12memory_order(ptr noundef nonnull align 4 dereferenceable(4) %0, i32 noundef %1, i32 noundef %2) #14 comdat align 2 {
  %4 = alloca ptr, align 8
  %5 = alloca i32, align 4
  %6 = alloca i32, align 4
  %7 = alloca i32, align 4
  %8 = alloca i32, align 4
  store ptr %0, ptr %4, align 8, !tbaa !106
  store i32 %1, ptr %5, align 4, !tbaa !48
  store i32 %2, ptr %6, align 4, !tbaa !130
  %9 = load ptr, ptr %4, align 8
  %10 = getelementptr inbounds nuw %"struct.std::__atomic_base", ptr %9, i32 0, i32 0
  %11 = load i32, ptr %6, align 4, !tbaa !130
  %12 = load i32, ptr %5, align 4, !tbaa !48
  store i32 %12, ptr %7, align 4, !tbaa !48
  switch i32 %11, label %13 [
    i32 1, label %16
    i32 2, label %16
    i32 3, label %19
    i32 4, label %22
    i32 5, label %25
  ]

13:                                               ; preds = %3
  %14 = load i32, ptr %7, align 4
  %15 = atomicrmw sub ptr %10, i32 %14 monotonic, align 4
  store i32 %15, ptr %8, align 4
  br label %28

16:                                               ; preds = %3, %3
  %17 = load i32, ptr %7, align 4
  %18 = atomicrmw sub ptr %10, i32 %17 acquire, align 4
  store i32 %18, ptr %8, align 4
  br label %28

19:                                               ; preds = %3
  %20 = load i32, ptr %7, align 4
  %21 = atomicrmw sub ptr %10, i32 %20 release, align 4
  store i32 %21, ptr %8, align 4
  br label %28

22:                                               ; preds = %3
  %23 = load i32, ptr %7, align 4
  %24 = atomicrmw sub ptr %10, i32 %23 acq_rel, align 4
  store i32 %24, ptr %8, align 4
  br label %28

25:                                               ; preds = %3
  %26 = load i32, ptr %7, align 4
  %27 = atomicrmw sub ptr %10, i32 %26 seq_cst, align 4
  store i32 %27, ptr %8, align 4
  br label %28

28:                                               ; preds = %25, %22, %19, %16, %13
  %29 = load i32, ptr %8, align 4, !tbaa !48
  ret i32 %29
}

; Function Attrs: inlinehint mustprogress nounwind uwtable
define linkonce_odr noundef i32 @_ZN6icu_7715umtx_atomic_decEPSt6atomicIiE(ptr noundef %0) #2 comdat {
  %2 = alloca ptr, align 8
  store ptr %0, ptr %2, align 8, !tbaa !108
  %3 = load ptr, ptr %2, align 8, !tbaa !108
  %4 = call noundef i32 @_ZNSt13__atomic_baseIiE9fetch_subEiSt12memory_order(ptr noundef nonnull align 4 dereferenceable(4) %3, i32 noundef 1, i32 noundef 5) #15
  %5 = sub nsw i32 %4, 1
  ret i32 %5
}

; Function Attrs: mustprogress uwtable
define void @_ZN6icu_779SpoofData15removeReferenceEv(ptr noundef nonnull align 8 dereferenceable(56) %0) #1 align 2 {
  %2 = alloca ptr, align 8
  store ptr %0, ptr %2, align 8, !tbaa !8
  %3 = load ptr, ptr %2, align 8
  %4 = getelementptr inbounds nuw %"class.icu_77::SpoofData", ptr %3, i32 0, i32 4
  %5 = call noundef i32 @_ZN6icu_7715umtx_atomic_decEPSt6atomicIiE(ptr noundef %4)
  %6 = icmp eq i32 %5, 0
  br i1 %6, label %7, label %11

7:                                                ; preds = %1
  %8 = icmp eq ptr %3, null
  br i1 %8, label %10, label %9

9:                                                ; preds = %7
  call void @_ZN6icu_779SpoofDataD1Ev(ptr noundef nonnull align 8 dereferenceable(56) %3) #15
  call void @_ZN6icu_777UMemorydlEPv(ptr noundef %3) #15
  br label %10

10:                                               ; preds = %9, %7
  br label %11

11:                                               ; preds = %10, %1
  ret void
}