; Function Attrs: mustprogress uwtable
define void @_ZN6icu_779SpoofData15removeReferenceEv(ptr noundef nonnull align 8 dereferenceable(56) %0) local_unnamed_addr #1 align 2 {
  %2 = getelementptr inbounds nuw i8, ptr %0, i64 28
  %3 = atomicrmw sub ptr %2, i32 1 seq_cst, align 4
  %.not = icmp eq i32 %3, 1
  br i1 %.not, label %4, label %5

4:                                                ; preds = %1
  tail call void @_ZN6icu_779SpoofDataD1Ev(ptr noundef nonnull align 8 dereferenceable(56) %0) #21
  tail call void @_ZN6icu_777UMemorydlEPv(ptr noundef nonnull %0) #21
  br label %5

5:                                                ; preds = %4, %1
  ret void
}